(lp0
(dp1
S'a'
p2
S'000000'
p3
sS'b'
p4
S'000'
p5
sS'd'
p6
S'0010000'
p7
sa(dp8
g2
S'000000'
p9
sg4
S'000'
p10
sg6
S'0011001'
p11
sa(dp12
g2
S'000101'
p13
sg4
S'010'
p14
sg6
S'0011010'
p15
sa(dp16
g2
S'000000'
p17
sg4
S'001'
p18
sg6
S'1011000'
p19
sa(dp20
g2
S'000000'
p21
sg4
S'001'
p22
sg6
S'0011001'
p23
sa(dp24
g2
S'000000'
p25
sg4
S'010'
p26
sg6
S'0000011'
p27
sa(dp28
g2
S'000101'
p29
sg4
S'000'
p30
sg6
S'0010010'
p31
sa(dp32
g2
S'000000'
p33
sg4
S'001'
p34
sg6
S'0010111'
p35
sa(dp36
g2
S'000000'
p37
sg4
S'000'
p38
sg6
S'0010001'
p39
sa(dp40
g2
S'100001'
p41
sg4
S'001'
p42
sg6
S'0000010'
p43
sa(dp44
g2
S'000010'
p45
sg4
S'110'
p46
sg6
S'0100011'
p47
sa(dp48
g2
S'000000'
p49
sg4
S'100'
p50
sg6
S'1011011'
p51
sa(dp52
g2
S'000000'
p53
sg4
S'100'
p54
sg6
S'0100001'
p55
sa(dp56
g2
S'000000'
p57
sg4
S'110'
p58
sg6
S'0100011'
p59
sa(dp60
g2
S'000000'
p61
sg4
S'001'
p62
sg6
S'1010101'
p63
sa(dp64
g2
S'000001'
p65
sg4
S'010'
p66
sg6
S'1000011'
p67
sa(dp68
g2
g57
sg4
S'110'
p69
sg6
S'0100001'
p70
sa(dp71
g2
S'010010'
p72
sg4
S'010'
p73
sg6
S'1000010'
p74
sa(dp75
g2
S'000000'
p76
sg4
S'001'
p77
sg6
S'0010001'
p78
sa(dp79
g2
S'010000'
p80
sg4
S'010'
p81
sg6
S'0011000'
p82
sa(dp83
g2
S'000000'
p84
sg4
S'000'
p85
sg6
S'0010011'
p86
sa(dp87
g2
S'000000'
p88
sg4
g85
sg6
g86
sa(dp89
g2
S'000000'
p90
sg4
S'000'
p91
sg6
S'0100111'
p92
sa(dp93
g2
S'000101'
p94
sg4
g54
sg6
S'0101110'
p95
sa(dp96
g2
S'001000'
p97
sg4
S'010'
p98
sg6
S'0010101'
p99
sa(dp100
g2
S'000000'
p101
sg4
S'000'
p102
sg6
S'0000011'
p103
sa(dp104
g2
S'000000'
p105
sg4
S'001'
p106
sg6
S'0011001'
p107
sa(dp108
g2
S'000001'
p109
sg4
S'000'
p110
sg6
S'0011001'
p111
sa(dp112
g2
S'010000'
p113
sg4
S'011'
p114
sg6
S'0010010'
p115
sa(dp116
g2
S'001000'
p117
sg4
S'110'
p118
sg6
S'0011001'
p119
sa(dp120
g2
S'000000'
p121
sg4
S'001'
p122
sg6
S'0110011'
p123
sa(dp124
g2
S'100000'
p125
sg4
S'001'
p126
sg6
S'1010011'
p127
sa(dp128
g2
S'000000'
p129
sg4
S'110'
p130
sg6
S'0110000'
p131
sa(dp132
g2
S'000010'
p133
sg4
S'001'
p134
sg6
S'0100001'
p135
sa(dp136
g2
S'000000'
p137
sg4
S'011'
p138
sg6
S'0101101'
p139
sa(dp140
g2
S'000000'
p141
sg4
S'010'
p142
sg6
S'0010010'
p143
sa(dp144
g2
S'000000'
p145
sg4
S'011'
p146
sg6
S'1101010'
p147
sa(dp148
g2
S'000001'
p149
sg4
S'000'
p150
sg6
S'0010011'
p151
sa(dp152
g2
S'000000'
p153
sg4
g66
sg6
g74
sa(dp154
g2
S'000000'
p155
sg4
S'100'
p156
sg6
S'0000001'
p157
sa(dp158
g2
S'000000'
p159
sg4
S'011'
p160
sg6
S'1011100'
p161
sa(dp162
g2
S'000100'
p163
sg4
S'000'
p164
sg6
S'0010011'
p165
sa(dp166
g2
S'000000'
p167
sg4
S'001'
p168
sg6
g23
sa(dp169
g2
S'000000'
p170
sg4
S'010'
p171
sg6
S'0010011'
p172
sa(dp173
g2
S'001010'
p174
sg4
g58
sg6
S'0101001'
p175
sa(dp176
g2
S'000000'
p177
sg4
S'111'
p178
sg6
S'0100000'
p179
sa(dp180
g2
S'000000'
p181
sg4
g164
sg6
S'0010000'
p182
sa(dp183
g2
S'000000'
p184
sg4
S'100'
p185
sg6
S'1010000'
p186
sa(dp187
g2
S'110100'
p188
sg4
S'011'
p189
sg6
S'1010111'
p190
sa(dp191
g2
g177
sg4
S'100'
p192
sg6
S'0101001'
p193
sa.