(lp0
(dp1
S'a'
p2
S'000000'
p3
sS'c'
p4
S'0'
p5
sS'b'
p6
S'001'
p7
sS'd'
p8
S'1000110'
p9
sS'f'
p10
S'01'
p11
sa(dp12
g2
S'011000'
p13
sg4
S'1'
p14
sg6
S'111'
p15
sg8
S'0001110'
p16
sg10
S'00'
p17
sa(dp18
g2
S'000010'
p19
sg4
g5
sg6
S'001'
p20
sg8
S'0001110'
p21
sg10
S'11'
p22
sa(dp23
g2
S'000001'
p24
sg4
g5
sg6
S'111'
p25
sg8
S'0011101'
p26
sg10
S'00'
p27
sa(dp28
g2
S'000000'
p29
sg4
g5
sg6
S'000'
p30
sg8
S'0000111'
p31
sg10
S'10'
p32
sa(dp33
g2
S'000000'
p34
sg4
g14
sg6
S'001'
p35
sg8
S'0100100'
p36
sg10
S'01'
p37
sa(dp38
g2
S'000000'
p39
sg4
g14
sg6
S'011'
p40
sg8
S'0101110'
p41
sg10
S'00'
p42
sa(dp43
g2
S'000010'
p44
sg4
g5
sg6
S'101'
p45
sg8
S'0011110'
p46
sg10
S'01'
p47
sa(dp48
g2
S'000000'
p49
sg4
g5
sg6
S'011'
p50
sg8
S'1011100'
p51
sg10
S'11'
p52
sa(dp53
g2
S'000001'
p54
sg4
g5
sg6
g35
sg8
S'0111100'
p55
sg10
S'00'
p56
sa(dp57
g2
S'000011'
p58
sg4
S'0'
p59
sg6
S'101'
p60
sg8
S'0000110'
p61
sg10
S'00'
p62
sa(dp63
g2
S'000000'
p64
sg4
g5
sg6
S'011'
p65
sg8
S'0100010'
p66
sg10
S'00'
p67
sa(dp68
g2
S'000010'
p69
sg4
g59
sg6
S'101'
p70
sg8
S'0100110'
p71
sg10
S'01'
p72
sa(dp73
g2
S'000000'
p74
sg4
g5
sg6
S'001'
p75
sg8
S'0101000'
p76
sg10
S'00'
p77
sa(dp78
g2
S'000000'
p79
sg4
g59
sg6
S'101'
p80
sg8
S'1000010'
p81
sg10
S'10'
p82
sa(dp83
g2
S'000000'
p84
sg4
g5
sg6
S'100'
p85
sg8
S'0110111'
p86
sg10
S'11'
p87
sa(dp88
g2
S'000000'
p89
sg4
g5
sg6
S'000'
p90
sg8
S'0100111'
p91
sg10
S'10'
p92
sa(dp93
g2
S'000000'
p94
sg4
g14
sg6
S'000'
p95
sg8
S'0101110'
p96
sg10
S'11'
p97
sa(dp98
g2
S'000100'
p99
sg4
g59
sg6
S'101'
p100
sg8
S'0001110'
p101
sg10
S'00'
p102
sa(dp103
g2
S'100001'
p104
sg4
g5
sg6
S'011'
p105
sg8
S'0010011'
p106
sg10
S'10'
p107
sa(dp108
g2
S'000100'
p109
sg4
g5
sg6
S'111'
p110
sg8
S'0010110'
p111
sg10
S'01'
p112
sa(dp113
g2
S'000001'
p114
sg4
g5
sg6
S'001'
p115
sg8
S'0110100'
p116
sg10
S'11'
p117
sa(dp118
g2
S'000000'
p119
sg4
g5
sg6
S'011'
p120
sg8
S'0100000'
p121
sg10
S'10'
p122
sa(dp123
g2
S'000000'
p124
sg4
g5
sg6
S'101'
p125
sg8
S'0000110'
p126
sg10
S'00'
p127
sa(dp128
g2
S'000000'
p129
sg4
g5
sg6
S'100'
p130
sg8
S'1000011'
p131
sg10
S'00'
p132
sa(dp133
g2
S'000000'
p134
sg4
g5
sg6
S'110'
p135
sg8
S'0100110'
p136
sg10
S'01'
p137
sa(dp138
g2
S'000000'
p139
sg4
g14
sg6
S'000'
p140
sg8
S'0001010'
p141
sg10
S'00'
p142
sa(dp143
g2
S'000000'
p144
sg4
g5
sg6
S'111'
p145
sg8
S'0000110'
p146
sg10
S'00'
p147
sa(dp148
g2
S'000010'
p149
sg4
g14
sg6
S'011'
p150
sg8
S'1111011'
p151
sg10
S'10'
p152
sa(dp153
g2
S'000000'
p154
sg4
g5
sg6
S'111'
p155
sg8
S'0000110'
p156
sg10
S'00'
p157
sa(dp158
g2
S'000010'
p159
sg4
g5
sg6
S'001'
p160
sg8
S'0101111'
p161
sg10
S'11'
p162
sa(dp163
g2
S'000010'
p164
sg4
g5
sg6
g160
sg8
S'0111111'
p165
sg10
S'11'
p166
sa(dp167
g2
S'000000'
p168
sg4
g59
sg6
g7
sg8
S'1001110'
p169
sg10
S'10'
p170
sa(dp171
g2
S'000000'
p172
sg4
g14
sg6
S'100'
p173
sg8
S'0010111'
p174
sg10
S'11'
p175
sa(dp176
g2
S'000000'
p177
sg4
g5
sg6
g35
sg8
S'0100110'
p178
sg10
S'00'
p179
sa(dp180
g2
S'000000'
p181
sg4
g59
sg6
S'100'
p182
sg8
S'0010100'
p183
sg10
S'11'
p184
sa(dp185
g2
S'000011'
p186
sg4
g14
sg6
g30
sg8
g31
sg10
S'11'
p187
sa(dp188
g2
S'000000'
p189
sg4
g14
sg6
S'111'
p190
sg8
S'1000110'
p191
sg10
S'01'
p192
sa(dp193
g2
S'000000'
p194
sg4
g5
sg6
S'000'
p195
sg8
S'1011110'
p196
sg10
S'10'
p197
sa(dp198
g2
S'000001'
p199
sg4
g5
sg6
S'000'
p200
sg8
g66
sg10
S'10'
p201
sa(dp202
g2
S'000010'
p203
sg4
g5
sg6
S'000'
p204
sg8
S'0111010'
p205
sg10
S'00'
p206
sa(dp207
g2
S'000000'
p208
sg4
g5
sg6
g75
sg8
S'0100111'
p209
sg10
S'00'
p210
sa(dp211
g2
S'001000'
p212
sg4
g5
sg6
S'000'
p213
sg8
S'0011010'
p214
sg10
S'11'
p215
sa(dp216
g2
S'000000'
p217
sg4
g5
sg6
S'011'
p218
sg8
S'0011111'
p219
sg10
S'10'
p220
sa(dp221
g2
S'001001'
p222
sg4
g5
sg6
g15
sg8
S'0011110'
p223
sg10
S'01'
p224
sa(dp225
g2
S'000000'
p226
sg4
g14
sg6
S'011'
p227
sg8
S'0100110'
p228
sg10
S'00'
p229
sa(dp230
g2
S'000000'
p231
sg4
g14
sg6
g213
sg8
S'0011111'
p232
sg10
g215
sa(dp233
g2
S'000001'
p234
sg4
g5
sg6
g182
sg8
S'0010110'
p235
sg10
g184
sa(dp236
g2
S'000000'
p237
sg4
g5
sg6
S'010'
p238
sg8
S'0000110'
p239
sg10
S'10'
p240
sa(dp241
g2
S'000000'
p242
sg4
g14
sg6
S'010'
p243
sg8
S'1000110'
p244
sg10
S'01'
p245
sa(dp246
g2
S'000000'
p247
sg4
g14
sg6
S'111'
p248
sg8
S'0001100'
p249
sg10
S'01'
p250
sa(dp251
g2
S'000000'
p252
sg4
g5
sg6
S'101'
p253
sg8
S'0110111'
p254
sg10
S'11'
p255
sa(dp256
g2
S'000000'
p257
sg4
g5
sg6
S'111'
p258
sg8
S'0011001'
p259
sg10
S'00'
p260
sa(dp261
g2
S'010000'
p262
sg4
g5
sg6
S'011'
p263
sg8
S'0011011'
p264
sg10
g152
sa(dp265
g2
S'000010'
p266
sg4
g59
sg6
S'000'
p267
sg8
S'1100111'
p268
sg10
S'01'
p269
sa(dp270
g2
S'000001'
p271
sg4
g5
sg6
S'001'
p272
sg8
S'0101101'
p273
sg10
S'00'
p274
sa(dp275
g2
S'000000'
p276
sg4
g5
sg6
S'100'
p277
sg8
S'0010111'
p278
sg10
S'01'
p279
sa(dp280
g2
S'000010'
p281
sg4
g14
sg6
g135
sg8
g136
sg10
S'00'
p282
sa(dp283
g2
g231
sg4
g5
sg6
g213
sg8
S'0001100'
p284
sg10
g215
sa(dp285
g2
S'010000'
p286
sg4
g5
sg6
S'011'
p287
sg8
S'0011110'
p288
sg10
S'00'
p289
sa(dp290
g2
g124
sg4
g5
sg6
g15
sg8
g126
sg10
g17
sa(dp291
g2
S'000010'
p292
sg4
g59
sg6
S'011'
p293
sg8
g36
sg10
g179
sa(dp294
g2
g84
sg4
g14
sg6
S'000'
p295
sg8
S'0010110'
p296
sg10
g87
sa(dp297
g2
S'000000'
p298
sg4
g5
sg6
S'000'
p299
sg8
S'1100011'
p300
sg10
S'10'
p301
sa(dp302
g2
S'000001'
p303
sg4
g5
sg6
g25
sg8
S'0001011'
p304
sg10
g102
sa(dp305
g2
S'000000'
p306
sg4
g5
sg6
S'001'
p307
sg8
S'1001110'
p308
sg10
S'11'
p309
sa(dp310
g2
S'000100'
p311
sg4
g14
sg6
S'000'
p312
sg8
S'0001010'
p313
sg10
g97
sa(dp314
g2
S'001010'
p315
sg4
g5
sg6
S'000'
p316
sg8
S'0000101'
p317
sg10
S'10'
p318
sa(dp319
g2
S'001000'
p320
sg4
g59
sg6
S'101'
p321
sg8
S'0011110'
p322
sg10
S'01'
p323
sa(dp324
g2
S'000100'
p325
sg4
g5
sg6
S'100'
p326
sg8
S'1111011'
p327
sg10
S'00'
p328
sa(dp329
g2
S'000000'
p330
sg4
g14
sg6
S'011'
p331
sg8
S'1001110'
p332
sg10
S'10'
p333
sa(dp334
g2
S'000000'
p335
sg4
g5
sg6
S'111'
p336
sg8
S'0000110'
p337
sg10
S'01'
p338
sa(dp339
g2
g134
sg4
g5
sg6
S'111'
p340
sg8
S'0111011'
p341
sg10
S'00'
p342
sa(dp343
g2
S'010000'
p344
sg4
g5
sg6
S'010'
p345
sg8
S'0000110'
p346
sg10
S'10'
p347
sa(dp348
g2
S'000000'
p349
sg4
g14
sg6
S'011'
p350
sg8
S'1010100'
p351
sg10
S'00'
p352
sa(dp353
g2
g177
sg4
g5
sg6
S'001'
p354
sg8
S'0110100'
p355
sg10
S'01'
p356
sa(dp357
g2
S'000001'
p358
sg4
g14
sg6
g277
sg8
g278
sg10
S'00'
p359
sa(dp360
g2
S'010010'
p361
sg4
g5
sg6
g15
sg8
g223
sg10
S'01'
p362
sa(dp363
g2
g129
sg4
g5
sg6
S'100'
p364
sg8
S'1000011'
p365
sg10
S'01'
p366
sa(dp367
g2
g298
sg4
g5
sg6
S'000'
p368
sg8
S'0110111'
p369
sg10
S'00'
p370
sa(dp371
g2
S'000000'
p372
sg4
g14
sg6
S'010'
p373
sg8
S'0110000'
p374
sg10
S'00'
p375
sa(dp376
g2
S'000000'
p377
sg4
g5
sg6
S'101'
p378
sg8
S'1110111'
p379
sg10
S'10'
p380
sa(dp381
g2
S'000100'
p382
sg4
g5
sg6
g204
sg8
S'0110111'
p383
sg10
S'01'
p384
sa(dp385
g2
g129
sg4
g5
sg6
g130
sg8
S'1000011'
p386
sg10
S'00'
p387
sa(dp388
g2
S'000000'
p389
sg4
g5
sg6
S'101'
p390
sg8
S'0101100'
p391
sg10
S'10'
p392
sa(dp393
g2
S'000011'
p394
sg4
g59
sg6
S'100'
p395
sg8
S'1100110'
p396
sg10
S'00'
p397
sa(dp398
g2
S'000000'
p399
sg4
g14
sg6
S'001'
p400
sg8
S'0010011'
p401
sg10
S'01'
p402
sa(dp403
g2
S'000001'
p404
sg4
g5
sg6
g15
sg8
g223
sg10
S'00'
p405
sa(dp406
g2
S'000100'
p407
sg4
g5
sg6
g35
sg8
S'0100010'
p408
sg10
S'00'
p409
sa(dp410
g2
S'000000'
p411
sg4
g5
sg6
g321
sg8
S'0011100'
p412
sg10
g323
sa(dp413
g2
S'000000'
p414
sg4
g59
sg6
S'010'
p415
sg8
g264
sg10
g152
sa(dp416
g2
S'000010'
p417
sg4
g5
sg6
S'001'
p418
sg8
S'0101111'
p419
sg10
S'11'
p420
sa(dp421
g2
S'000000'
p422
sg4
g5
sg6
S'111'
p423
sg8
S'0000110'
p424
sg10
S'11'
p425
sa(dp426
g2
S'000001'
p427
sg4
g5
sg6
S'100'
p428
sg8
S'0000100'
p429
sg10
g157
sa(dp430
g2
S'000000'
p431
sg4
g59
sg6
S'000'
p432
sg8
g268
sg10
g269
sa(dp433
g2
S'000000'
p434
sg4
g14
sg6
S'000'
p435
sg8
g31
sg10
S'10'
p436
sa(dp437
g2
g79
sg4
g5
sg6
S'110'
p438
sg8
S'0001111'
p439
sg10
S'00'
p440
sa(dp441
g2
S'000001'
p442
sg4
g59
sg6
S'001'
p443
sg8
S'0010111'
p444
sg10
S'10'
p445
sa(dp446
g2
S'000001'
p447
sg4
g59
sg6
S'000'
p448
sg8
S'0010011'
p449
sg10
S'10'
p450
sa(dp451
g2
S'000010'
p452
sg4
g5
sg6
S'010'
p453
sg8
S'0011110'
p454
sg10
S'10'
p455
sa.